target datalayout = "e-m:e-p270:32:32-p271:32:32-p272:64:64-i64:64-i128:128-f80:128-n8:16:32:64-S128"
target triple = "x86_64-pc-linux-gnu"

%"struct.icu_77::CollationData" = type <{ ptr, ptr, ptr, ptr, ptr, ptr, ptr, i32, i32, i32, i32, ptr, ptr, ptr, i32, i32, ptr, ptr, i32, [4 x i8], ptr, i32, [4 x i8] }>

; Function Attrs: mustprogress nounwind uwtable
define noundef i32 @_ZNK6icu_7713CollationData18addHighScriptRangeEPhii(ptr noundef nonnull align 8 dereferenceable(140) %0, ptr noundef %1, i32 noundef %2, i32 noundef %3) #3 align 2 {
  %5 = alloca ptr, align 8
  %6 = alloca ptr, align 8
  %7 = alloca i32, align 4
  %8 = alloca i32, align 4
  %9 = alloca i32, align 4
  %10 = alloca i32, align 4
  store ptr %0, ptr %5, align 8, !tbaa !3
  store ptr %1, ptr %6, align 8, !tbaa !57
  store i32 %2, ptr %7, align 4, !tbaa !8
  store i32 %3, ptr %8, align 4, !tbaa !8
  %11 = load ptr, ptr %5, align 8
  call void @llvm.lifetime.start.p0(i64 4, ptr %9) #7
  %12 = getelementptr inbounds nuw %"struct.icu_77::CollationData", ptr %11, i32 0, i32 17
  %13 = load ptr, ptr %12, align 8, !tbaa !38
  %14 = load i32, ptr %7, align 4, !tbaa !8
  %15 = add nsw i32 %14, 1
  %16 = sext i32 %15 to i64
  %17 = getelementptr inbounds i16, ptr %13, i64 %16
  %18 = load i16, ptr %17, align 2, !tbaa !35
  %19 = zext i16 %18 to i32
  store i32 %19, ptr %9, align 4, !tbaa !8
  %20 = load i32, ptr %9, align 4, !tbaa !8
  %21 = and i32 %20, 255
  %22 = load i32, ptr %8, align 4, !tbaa !8
  %23 = and i32 %22, 255
  %24 = icmp sgt i32 %21, %23
  br i1 %24, label %25, label %28

25:                                               ; preds = %4
  %26 = load i32, ptr %8, align 4, !tbaa !8
  %27 = sub nsw i32 %26, 256
  store i32 %27, ptr %8, align 4, !tbaa !8
  br label %28

28:                                               ; preds = %25, %4
  call void @llvm.lifetime.start.p0(i64 4, ptr %10) #7
  %29 = getelementptr inbounds nuw %"struct.icu_77::CollationData", ptr %11, i32 0, i32 17
  %30 = load ptr, ptr %29, align 8, !tbaa !38
  %31 = load i32, ptr %7, align 4, !tbaa !8
  %32 = sext i32 %31 to i64
  %33 = getelementptr inbounds i16, ptr %30, i64 %32
  %34 = load i16, ptr %33, align 2, !tbaa !35
  %35 = zext i16 %34 to i32
  store i32 %35, ptr %10, align 4, !tbaa !8
  %36 = load i32, ptr %8, align 4, !tbaa !8
  %37 = and i32 %36, 65280
  %38 = load i32, ptr %9, align 4, !tbaa !8
  %39 = and i32 %38, 65280
  %40 = load i32, ptr %10, align 4, !tbaa !8
  %41 = and i32 %40, 65280
  %42 = sub nsw i32 %39, %41
  %43 = sub nsw i32 %37, %42
  %44 = load i32, ptr %10, align 4, !tbaa !8
  %45 = and i32 %44, 255
  %46 = or i32 %43, %45
  store i32 %46, ptr %8, align 4, !tbaa !8
  %47 = load i32, ptr %8, align 4, !tbaa !8
  %48 = ashr i32 %47, 8
  %49 = trunc i32 %48 to i8
  %50 = load ptr, ptr %6, align 8, !tbaa !57
  %51 = load i32, ptr %7, align 4, !tbaa !8
  %52 = sext i32 %51 to i64
  %53 = getelementptr inbounds i8, ptr %50, i64 %52
  store i8 %49, ptr %53, align 1, !tbaa !49
  %54 = load i32, ptr %8, align 4, !tbaa !8
  call void @llvm.lifetime.end.p0(i64 4, ptr %10) #7
  call void @llvm.lifetime.end.p0(i64 4, ptr %9) #7
  ret i32 %54
}