; Function Attrs: mustprogress nofree norecurse nosync nounwind willreturn memory(read, argmem: readwrite, inaccessiblemem: none) uwtable
define noundef i32 @_ZNK6icu_7713CollationData18addHighScriptRangeEPhii(ptr noundef nonnull readonly align 8 captures(none) dereferenceable(140) %0, ptr noundef writeonly captures(none) %1, i32 noundef %2, i32 noundef %3) local_unnamed_addr #6 align 2 {
  %5 = getelementptr inbounds nuw i8, ptr %0, i64 112
  %6 = load ptr, ptr %5, align 8, !tbaa !38
  %7 = sext i32 %2 to i64
  %8 = getelementptr i16, ptr %6, i64 %7
  %9 = getelementptr i8, ptr %8, i64 2
  %10 = load i16, ptr %9, align 2, !tbaa !29
  %11 = zext i16 %10 to i32
  %12 = and i32 %11, 255
  %13 = and i32 %3, 255
  %14 = icmp samesign ugt i32 %12, %13
  %15 = add i32 %3, 65280
  %spec.select = select i1 %14, i32 %15, i32 %3
  %16 = load i16, ptr %8, align 2, !tbaa !29
  %17 = zext i16 %16 to i32
  %18 = and i32 %spec.select, 65280
  %19 = and i32 %11, 65280
  %20 = and i32 %17, 65280
  %.neg = sub nsw i32 %20, %19
  %21 = add nsw i32 %18, %.neg
  %22 = and i32 %17, 255
  %23 = or disjoint i32 %21, %22
  %24 = lshr exact i32 %21, 8
  %25 = trunc i32 %24 to i8
  %26 = getelementptr inbounds i8, ptr %1, i64 %7
  store i8 %25, ptr %26, align 1, !tbaa !44
  ret i32 %23
}